; Function Attrs: nounwind uwtable
define void @Cba_BlastFullAdderSubtr(ptr noundef %0, i32 noundef %1, i32 noundef %2, i32 noundef %3, ptr noundef writeonly captures(none) initializes((0, 4)) %4, ptr noundef writeonly captures(none) initializes((0, 4)) %5, i32 noundef %6) local_unnamed_addr #0 {
  %8 = tail call i32 @Gia_ManHashXor(ptr noundef %0, i32 noundef %1, i32 noundef %6) #20
  %9 = tail call i32 @Gia_ManHashAnd(ptr noundef %0, i32 noundef %8, i32 noundef %2) #20
  %10 = xor i32 %8, 1
  %11 = xor i32 %2, 1
  %12 = tail call i32 @Gia_ManHashAnd(ptr noundef %0, i32 noundef %10, i32 noundef %11) #20
  %13 = tail call i32 @Gia_ManHashOr(ptr noundef %0, i32 noundef %9, i32 noundef %12) #20
  %14 = xor i32 %13, 1
  %15 = tail call i32 @Gia_ManHashAnd(ptr noundef %0, i32 noundef %3, i32 noundef %14) #20
  %16 = xor i32 %3, 1
  %17 = tail call i32 @Gia_ManHashAnd(ptr noundef %0, i32 noundef %16, i32 noundef %13) #20
  %18 = tail call i32 @Gia_ManHashOr(ptr noundef %0, i32 noundef %15, i32 noundef %17) #20
  %19 = xor i32 %18, 1
  store i32 %19, ptr %5, align 4
  %20 = tail call i32 @Gia_ManHashOr(ptr noundef %0, i32 noundef %9, i32 noundef %15) #20
  store i32 %20, ptr %4, align 4
  ret void
}